target datalayout = "e-m:e-p270:32:32-p271:32:32-p272:64:64-i64:64-i128:128-f80:128-n8:16:32:64-S128"
target triple = "x86_64-pc-linux-gnu"

%"class.base::File" = type <{ %"class.base::ScopedGeneric", [4 x i8], %"class.base::FilePath", [4 x i8], i32, i8, i8, [6 x i8] }>
%"class.base::ScopedGeneric" = type { %"struct.base::ScopedGeneric<int, base::internal::ScopedFDCloseTraits>::Data" }
%"struct.base::ScopedGeneric<int, base::internal::ScopedFDCloseTraits>::Data" = type { i32 }
%"class.base::FilePath" = type { %"class.std::__cxx11::basic_string" }
%"class.std::__cxx11::basic_string" = type { %"struct.std::__cxx11::basic_string<char>::_Alloc_hider", i64, %union.anon }
%"struct.std::__cxx11::basic_string<char>::_Alloc_hider" = type { ptr }
%union.anon = type { i64, [8 x i8] }
%"class.base::FileTracing::ScopedTrace" = type { ptr, ptr }

@.str.1 = private unnamed_addr constant [11 x i8] c"File::Seek\00", align 1

; Function Attrs: mustprogress nounwind uwtable
define linkonce_odr noundef nonnull align 4 dereferenceable(4) ptr @_ZNK4base13ScopedGenericIiNS_8internal19ScopedFDCloseTraitsEE3getEv(ptr noundef nonnull align 4 dereferenceable(4) %0) #4 comdat align 2 {
  %2 = alloca ptr, align 8
  store ptr %0, ptr %2, align 8, !tbaa !36
  %3 = load ptr, ptr %2, align 8
  %4 = getelementptr inbounds nuw %"class.base::ScopedGeneric", ptr %3, i32 0, i32 0
  %5 = getelementptr inbounds nuw %"struct.base::ScopedGeneric<int, base::internal::ScopedFDCloseTraits>::Data", ptr %4, i32 0, i32 0
  ret ptr %5
}

; Function Attrs: mustprogress nounwind uwtable
define linkonce_odr void @_ZN4base18ThreadRestrictions15AssertIOAllowedEv() #4 comdat align 2 {
  ret void
}

; Function Attrs: mustprogress uwtable
define noundef i64 @_ZN4base4File4SeekENS0_6WhenceEl(ptr noundef nonnull align 8 dereferenceable(50) %0, i32 noundef %1, i64 noundef %2) #0 align 2 personality ptr @__gxx_personality_v0 {
  %4 = alloca ptr, align 8
  %5 = alloca i32, align 4
  %6 = alloca i64, align 8
  %7 = alloca %"class.base::FileTracing::ScopedTrace", align 8
  %8 = alloca ptr, align 8
  %9 = alloca i32, align 4
  store ptr %0, ptr %4, align 8, !tbaa !34
  store i32 %1, ptr %5, align 4, !tbaa !44
  store i64 %2, ptr %6, align 8, !tbaa !24
  %10 = load ptr, ptr %4, align 8
  call void @_ZN4base18ThreadRestrictions15AssertIOAllowedEv()
  call void @llvm.lifetime.start.p0(i64 16, ptr %7) #14
  call void @_ZN4base11FileTracing11ScopedTraceC1Ev(ptr noundef nonnull align 8 dereferenceable(16) %7)
  %11 = invoke noundef zeroext i1 @_ZN4base11FileTracing17IsCategoryEnabledEv()
          to label %12 unwind label %16

12:                                               ; preds = %3
  br i1 %11, label %13, label %20

13:                                               ; preds = %12
  %14 = load i64, ptr %6, align 8, !tbaa !24
  invoke void @_ZN4base11FileTracing11ScopedTrace10InitializeEPKcPKNS_4FileEl(ptr noundef nonnull align 8 dereferenceable(16) %7, ptr noundef @.str.1, ptr noundef %10, i64 noundef %14)
          to label %15 unwind label %16

15:                                               ; preds = %13
  br label %20

16:                                               ; preds = %20, %13, %3
  %17 = landingpad { ptr, i32 }
          cleanup
  %18 = extractvalue { ptr, i32 } %17, 0
  store ptr %18, ptr %8, align 8
  %19 = extractvalue { ptr, i32 } %17, 1
  store i32 %19, ptr %9, align 4
  call void @_ZN4base11FileTracing11ScopedTraceD1Ev(ptr noundef nonnull align 8 dereferenceable(16) %7) #14
  call void @llvm.lifetime.end.p0(i64 16, ptr %7) #14
  br label %28

20:                                               ; preds = %15, %12
  %21 = getelementptr inbounds nuw %"class.base::File", ptr %10, i32 0, i32 0
  %22 = invoke noundef nonnull align 4 dereferenceable(4) ptr @_ZNK4base13ScopedGenericIiNS_8internal19ScopedFDCloseTraitsEE3getEv(ptr noundef nonnull align 4 dereferenceable(4) %21)
          to label %23 unwind label %16

23:                                               ; preds = %20
  %24 = load i32, ptr %22, align 4, !tbaa !41
  %25 = load i64, ptr %6, align 8, !tbaa !24
  %26 = load i32, ptr %5, align 4, !tbaa !44
  %27 = call i64 @lseek(i32 noundef %24, i64 noundef %25, i32 noundef %26) #14
  call void @_ZN4base11FileTracing11ScopedTraceD1Ev(ptr noundef nonnull align 8 dereferenceable(16) %7) #14
  call void @llvm.lifetime.end.p0(i64 16, ptr %7) #14
  ret i64 %27

28:                                               ; preds = %16
  %29 = load ptr, ptr %8, align 8
  %30 = load i32, ptr %9, align 4
  %31 = insertvalue { ptr, i32 } poison, ptr %29, 0
  %32 = insertvalue { ptr, i32 } %31, i32 %30, 1
  resume { ptr, i32 } %32
}