; Function Attrs: mustprogress uwtable
define noundef i64 @_ZN4base4File4SeekENS0_6WhenceEl(ptr noundef nonnull align 8 dereferenceable(50) %0, i32 noundef %1, i64 noundef %2) local_unnamed_addr #0 align 2 personality ptr @__gxx_personality_v0 {
  %4 = alloca %"class.base::FileTracing::ScopedTrace", align 8
  call void @llvm.lifetime.start.p0(i64 16, ptr nonnull %4) #14
  call void @_ZN4base11FileTracing11ScopedTraceC1Ev(ptr noundef nonnull align 8 dereferenceable(16) %4)
  %5 = invoke noundef zeroext i1 @_ZN4base11FileTracing17IsCategoryEnabledEv()
          to label %6 unwind label %8

6:                                                ; preds = %3
  br i1 %5, label %7, label %10

7:                                                ; preds = %6
  invoke void @_ZN4base11FileTracing11ScopedTrace10InitializeEPKcPKNS_4FileEl(ptr noundef nonnull align 8 dereferenceable(16) %4, ptr noundef nonnull @.str.1, ptr noundef nonnull %0, i64 noundef %2)
          to label %10 unwind label %8

8:                                                ; preds = %7, %3
  %9 = landingpad { ptr, i32 }
          cleanup
  call void @_ZN4base11FileTracing11ScopedTraceD1Ev(ptr noundef nonnull align 8 dereferenceable(16) %4) #14
  call void @llvm.lifetime.end.p0(i64 16, ptr nonnull %4) #14
  resume { ptr, i32 } %9

10:                                               ; preds = %7, %6
  %11 = load i32, ptr %0, align 8, !tbaa !27
  %12 = call i64 @lseek(i32 noundef %11, i64 noundef %2, i32 noundef %1) #14
  call void @_ZN4base11FileTracing11ScopedTraceD1Ev(ptr noundef nonnull align 8 dereferenceable(16) %4) #14
  call void @llvm.lifetime.end.p0(i64 16, ptr nonnull %4) #14
  ret i64 %12
}